; Function Attrs: mustprogress uwtable
define hidden void @_ZN7nanogui7TextBox20paste_from_clipboardEv(ptr noundef nonnull align 8 dereferenceable(440) %0) local_unnamed_addr #3 align 2 personality ptr @__gxx_personality_v0 {
  %2 = alloca %"class.std::__cxx11::basic_string", align 8
  %3 = alloca %"class.std::allocator.1", align 1
  %4 = tail call noundef ptr @_ZN7nanogui6Widget6screenEv(ptr noundef nonnull align 8 dereferenceable(140) %0)
  %.not = icmp eq ptr %4, null
  br i1 %.not, label %25, label %5

5:                                                ; preds = %1
  %6 = getelementptr inbounds i8, ptr %4, i64 144
  %7 = load ptr, ptr %6, align 8
  %8 = tail call ptr @glfwGetClipboardString(ptr noundef %7)
  %.not9 = icmp eq ptr %8, null
  br i1 %.not9, label %25, label %9

9:                                                ; preds = %5
  %10 = getelementptr inbounds i8, ptr %0, i64 392
  %11 = load i32, ptr %10, align 8
  call void @_ZNSaIcEC1Ev(ptr noundef nonnull align 1 dereferenceable(1) %3) #27
  %12 = invoke noundef ptr @_ZNSt7__cxx1112basic_stringIcSt11char_traitsIcESaIcEE13_M_local_dataEv(ptr noundef nonnull align 8 dereferenceable(32) %2)
          to label %.noexc unwind label %21

.noexc:                                           ; preds = %9
  invoke void @_ZNSt7__cxx1112basic_stringIcSt11char_traitsIcESaIcEE12_Alloc_hiderC1EPcRKS3_(ptr noundef nonnull align 8 dereferenceable(8) %2, ptr noundef %12, ptr noundef nonnull align 1 dereferenceable(1) %3)
          to label %.noexc11 unwind label %21

13:                                               ; preds = %.noexc11
  %14 = landingpad { ptr, i32 }
          cleanup
  call void @_ZNSaIcED2Ev(ptr noundef nonnull align 1 dereferenceable(1) %2) #27
  br label %.body

.noexc11:                                         ; preds = %.noexc
  %15 = call noundef i64 @strlen(ptr noundef nonnull dereferenceable(1) %8) #27
  %16 = getelementptr inbounds i8, ptr %8, i64 %15
  invoke void @_ZNSt7__cxx1112basic_stringIcSt11char_traitsIcESaIcEE12_M_constructIPKcEEvT_S8_St20forward_iterator_tag(ptr noundef nonnull align 8 dereferenceable(32) %2, ptr noundef nonnull %8, ptr noundef nonnull %16)
          to label %_ZNSt7__cxx1112basic_stringIcSt11char_traitsIcESaIcEEC2IS3_EEPKcRKS3_.exit unwind label %13

_ZNSt7__cxx1112basic_stringIcSt11char_traitsIcESaIcEEC2IS3_EEPKcRKS3_.exit: ; preds = %.noexc11
  %17 = sext i32 %11 to i64
  %18 = getelementptr inbounds i8, ptr %0, i64 328
  %19 = invoke noundef nonnull align 8 dereferenceable(32) ptr @_ZNSt7__cxx1112basic_stringIcSt11char_traitsIcESaIcEE6insertEmRKS4_(ptr noundef nonnull align 8 dereferenceable(32) %18, i64 noundef %17, ptr noundef nonnull align 8 dereferenceable(32) %2)
          to label %20 unwind label %23

20:                                               ; preds = %_ZNSt7__cxx1112basic_stringIcSt11char_traitsIcESaIcEEC2IS3_EEPKcRKS3_.exit
  call void @_ZNSt7__cxx1112basic_stringIcSt11char_traitsIcESaIcEED1Ev(ptr noundef nonnull align 8 dereferenceable(32) %2) #27
  call void @_ZNSaIcED1Ev(ptr noundef nonnull align 1 dereferenceable(1) %3) #27
  br label %25

21:                                               ; preds = %.noexc, %9
  %22 = landingpad { ptr, i32 }
          cleanup
  br label %.body

23:                                               ; preds = %_ZNSt7__cxx1112basic_stringIcSt11char_traitsIcESaIcEEC2IS3_EEPKcRKS3_.exit
  %24 = landingpad { ptr, i32 }
          cleanup
  call void @_ZNSt7__cxx1112basic_stringIcSt11char_traitsIcESaIcEED1Ev(ptr noundef nonnull align 8 dereferenceable(32) %2) #27
  br label %.body

.body:                                            ; preds = %21, %13, %23
  %.pn = phi { ptr, i32 } [ %24, %23 ], [ %22, %21 ], [ %14, %13 ]
  call void @_ZNSaIcED1Ev(ptr noundef nonnull align 1 dereferenceable(1) %3) #27
  resume { ptr, i32 } %.pn

25:                                               ; preds = %1, %20, %5
  ret void
}